target datalayout = "e-m:e-p270:32:32-p271:32:32-p272:64:64-i64:64-i128:128-f80:128-n8:16:32:64-S128"
target triple = "x86_64-pc-linux-gnu"

%"class.std::__cxx11::basic_string" = type { %"struct.std::__cxx11::basic_string<char>::_Alloc_hider", i64, %union.anon }
%"struct.std::__cxx11::basic_string<char>::_Alloc_hider" = type { ptr }
%union.anon = type { i64, [8 x i8] }
%"class.std::basic_string_view" = type { i64, ptr }
%class.cmValue = type { ptr }
%class.cmCommonTargetGenerator = type { ptr, ptr, ptr, ptr, ptr, %"class.std::vector", i8, %"class.std::map" }
%"class.std::map" = type { %"class.std::_Rb_tree" }
%"class.std::_Rb_tree" = type { %"struct.std::_Rb_tree<std::__cxx11::basic_string<char>, std::pair<const std::__cxx11::basic_string<char>, cmCommonTargetGenerator::ByConfig>, std::_Select1st<std::pair<const std::__cxx11::basic_string<char>, cmCommonTargetGenerator::ByConfig>>, std::less<std::__cxx11::basic_string<char>>>::_Rb_tree_impl" }
%"struct.std::_Rb_tree<std::__cxx11::basic_string<char>, std::pair<const std::__cxx11::basic_string<char>, cmCommonTargetGenerator::ByConfig>, std::_Select1st<std::pair<const std::__cxx11::basic_string<char>, cmCommonTargetGenerator::ByConfig>>, std::less<std::__cxx11::basic_string<char>>>::_Rb_tree_impl" = type { %"struct.std::_Rb_tree_key_compare", %"struct.std::_Rb_tree_header" }
%"struct.std::_Rb_tree_key_compare" = type { %"struct.std::less" }
%"struct.std::less" = type { i8 }
%"struct.std::_Rb_tree_header" = type { %"struct.std::_Rb_tree_node_base", i64 }
%"struct.std::_Rb_tree_node_base" = type { i32, ptr, ptr, ptr }
%"class.std::vector" = type { %"struct.std::_Vector_base" }
%"struct.std::_Vector_base" = type { %"struct.std::_Vector_base<std::__cxx11::basic_string<char>, std::allocator<std::__cxx11::basic_string<char>>>::_Vector_impl" }
%"struct.std::_Vector_base<std::__cxx11::basic_string<char>, std::allocator<std::__cxx11::basic_string<char>>>::_Vector_impl" = type { %"struct.std::_Vector_base<std::__cxx11::basic_string<char>, std::allocator<std::__cxx11::basic_string<char>>>::_Vector_impl_data" }
%"struct.std::_Vector_base<std::__cxx11::basic_string<char>, std::allocator<std::__cxx11::basic_string<char>>>::_Vector_impl_data" = type { ptr, ptr, ptr }

@.str.44 = private unnamed_addr constant [7 x i8] c"CMAKE_\00", align 1
@.str.191 = private unnamed_addr constant [33 x i8] c"_USE_RESPONSE_FILE_FOR_LIBRARIES\00", align 1
@_ZN7cmValue5EmptyB5cxx11E = external global %"class.std::__cxx11::basic_string", align 8

; Function Attrs: mustprogress nounwind uwtable
define linkonce_odr dso_local noundef zeroext i1 @_ZNK7cmValue4IsOnEv(ptr noundef nonnull align 8 dereferenceable(8) %0) #5 comdat align 2 {
  %2 = alloca ptr, align 8
  %3 = alloca %"class.std::basic_string_view", align 8
  store ptr %0, ptr %2, align 8
  %4 = load ptr, ptr %2, align 8
  %5 = getelementptr inbounds %class.cmValue, ptr %4, i32 0, i32 0
  %6 = load ptr, ptr %5, align 8
  %7 = icmp ne ptr %6, null
  br i1 %7, label %8, label %21

8:                                                ; preds = %1
  %9 = getelementptr inbounds %class.cmValue, ptr %4, i32 0, i32 0
  %10 = load ptr, ptr %9, align 8
  %11 = call { i64, ptr } @_ZNKSt7__cxx1112basic_stringIcSt11char_traitsIcESaIcEEcvSt17basic_string_viewIcS2_EEv(ptr noundef nonnull align 8 dereferenceable(32) %10) #3
  %12 = getelementptr inbounds { i64, ptr }, ptr %3, i32 0, i32 0
  %13 = extractvalue { i64, ptr } %11, 0
  store i64 %13, ptr %12, align 8
  %14 = getelementptr inbounds { i64, ptr }, ptr %3, i32 0, i32 1
  %15 = extractvalue { i64, ptr } %11, 1
  store ptr %15, ptr %14, align 8
  %16 = getelementptr inbounds { i64, ptr }, ptr %3, i32 0, i32 0
  %17 = load i64, ptr %16, align 8
  %18 = getelementptr inbounds { i64, ptr }, ptr %3, i32 0, i32 1
  %19 = load ptr, ptr %18, align 8
  %20 = call noundef zeroext i1 @_ZN7cmValue4IsOnESt17basic_string_viewIcSt11char_traitsIcEE(i64 %17, ptr %19) #3
  br label %21

21:                                               ; preds = %8, %1
  %22 = phi i1 [ false, %1 ], [ %20, %8 ]
  ret i1 %22
}

; Function Attrs: mustprogress nounwind uwtable
define linkonce_odr dso_local noundef zeroext i1 @_Z6cmIsOn7cmValue(ptr %0) #5 comdat {
  %2 = alloca %class.cmValue, align 8
  %3 = getelementptr inbounds %class.cmValue, ptr %2, i32 0, i32 0
  store ptr %0, ptr %3, align 8
  %4 = call noundef zeroext i1 @_ZNK7cmValue4IsOnEv(ptr noundef nonnull align 8 dereferenceable(8) %2) #3
  ret i1 %4
}

; Function Attrs: mustprogress nounwind uwtable
define linkonce_odr dso_local noundef ptr @_ZNK7cmValueptB5cxx11Ev(ptr noundef nonnull align 8 dereferenceable(8) %0) #5 comdat align 2 {
  %2 = alloca ptr, align 8
  store ptr %0, ptr %2, align 8
  %3 = load ptr, ptr %2, align 8
  %4 = getelementptr inbounds %class.cmValue, ptr %3, i32 0, i32 0
  %5 = load ptr, ptr %4, align 8
  %6 = icmp eq ptr %5, null
  br i1 %6, label %7, label %8

7:                                                ; preds = %1
  br label %11

8:                                                ; preds = %1
  %9 = getelementptr inbounds %class.cmValue, ptr %3, i32 0, i32 0
  %10 = load ptr, ptr %9, align 8
  br label %11

11:                                               ; preds = %8, %7
  %12 = phi ptr [ @_ZN7cmValue5EmptyB5cxx11E, %7 ], [ %10, %8 ]
  ret ptr %12
}

; Function Attrs: mustprogress nounwind uwtable
define linkonce_odr dso_local noundef zeroext i1 @_ZNK7cmValuecvbEv(ptr noundef nonnull align 8 dereferenceable(8) %0) #5 comdat align 2 {
  %2 = alloca ptr, align 8
  store ptr %0, ptr %2, align 8
  %3 = load ptr, ptr %2, align 8
  %4 = getelementptr inbounds %class.cmValue, ptr %3, i32 0, i32 0
  %5 = load ptr, ptr %4, align 8
  %6 = icmp ne ptr %5, null
  ret i1 %6
}

; Function Attrs: mustprogress uwtable
define linkonce_odr dso_local void @_ZStplIcSt11char_traitsIcESaIcEENSt7__cxx1112basic_stringIT_T0_T1_EEOS8_PKS5_(ptr dead_on_unwind noalias writable sret(%"class.std::__cxx11::basic_string") align 8 %0, ptr noundef nonnull align 8 dereferenceable(32) %1, ptr noundef %2) #4 comdat {
  %4 = alloca ptr, align 8
  %5 = alloca ptr, align 8
  %6 = alloca ptr, align 8
  store ptr %0, ptr %4, align 8
  store ptr %1, ptr %5, align 8
  store ptr %2, ptr %6, align 8
  %7 = load ptr, ptr %5, align 8
  %8 = load ptr, ptr %6, align 8
  %9 = call noundef nonnull align 8 dereferenceable(32) ptr @_ZNSt7__cxx1112basic_stringIcSt11char_traitsIcESaIcEE6appendEPKc(ptr noundef nonnull align 8 dereferenceable(32) %7, ptr noundef %8)
  call void @_ZNSt7__cxx1112basic_stringIcSt11char_traitsIcESaIcEEC1EOS4_(ptr noundef nonnull align 8 dereferenceable(32) %0, ptr noundef nonnull align 8 dereferenceable(32) %9) #3
  ret void
}

; Function Attrs: mustprogress uwtable
define dso_local noundef zeroext i1 @_ZNK25cmMakefileTargetGenerator32CheckUseResponseFileForLibrariesERKNSt7__cxx1112basic_stringIcSt11char_traitsIcESaIcEEE(ptr noundef nonnull align 8 dereferenceable(1064) %0, ptr noundef nonnull align 8 dereferenceable(32) %1) #4 align 2 personality ptr @__gxx_personality_v0 {
  %3 = alloca i1, align 1
  %4 = alloca ptr, align 8
  %5 = alloca ptr, align 8
  %6 = alloca %"class.std::__cxx11::basic_string", align 8
  %7 = alloca %"class.std::__cxx11::basic_string", align 8
  %8 = alloca ptr, align 8
  %9 = alloca i32, align 4
  %10 = alloca %class.cmValue, align 8
  %11 = alloca %class.cmValue, align 8
  %12 = alloca i32, align 4
  store ptr %0, ptr %4, align 8
  store ptr %1, ptr %5, align 8
  %13 = load ptr, ptr %4, align 8
  %14 = load ptr, ptr %5, align 8
  call void @_ZStplIcSt11char_traitsIcESaIcEENSt7__cxx1112basic_stringIT_T0_T1_EEPKS5_RKS8_(ptr dead_on_unwind writable sret(%"class.std::__cxx11::basic_string") align 8 %7, ptr noundef @.str.44, ptr noundef nonnull align 8 dereferenceable(32) %14)
  invoke void @_ZStplIcSt11char_traitsIcESaIcEENSt7__cxx1112basic_stringIT_T0_T1_EEOS8_PKS5_(ptr dead_on_unwind writable sret(%"class.std::__cxx11::basic_string") align 8 %6, ptr noundef nonnull align 8 dereferenceable(32) %7, ptr noundef @.str.191)
          to label %15 unwind label %30

15:                                               ; preds = %2
  call void @_ZNSt7__cxx1112basic_stringIcSt11char_traitsIcESaIcEED1Ev(ptr noundef nonnull align 8 dereferenceable(32) %7) #3
  %16 = getelementptr inbounds %class.cmCommonTargetGenerator, ptr %13, i32 0, i32 2
  %17 = load ptr, ptr %16, align 8
  %18 = invoke ptr @_ZNK10cmMakefile13GetDefinitionERKNSt7__cxx1112basic_stringIcSt11char_traitsIcESaIcEEE(ptr noundef nonnull align 8 dereferenceable(3520) %17, ptr noundef nonnull align 8 dereferenceable(32) %6)
          to label %19 unwind label %34

19:                                               ; preds = %15
  %20 = getelementptr inbounds %class.cmValue, ptr %10, i32 0, i32 0
  store ptr %18, ptr %20, align 8
  %21 = call noundef zeroext i1 @_ZNK7cmValuecvbEv(ptr noundef nonnull align 8 dereferenceable(8) %10) #3
  br i1 %21, label %22, label %39

22:                                               ; preds = %19
  %23 = call noundef ptr @_ZNK7cmValueptB5cxx11Ev(ptr noundef nonnull align 8 dereferenceable(8) %10) #3
  %24 = call noundef zeroext i1 @_ZNKSt7__cxx1112basic_stringIcSt11char_traitsIcESaIcEE5emptyEv(ptr noundef nonnull align 8 dereferenceable(32) %23) #3
  br i1 %24, label %38, label %25

25:                                               ; preds = %22
  call void @llvm.memcpy.p0.p0.i64(ptr align 8 %11, ptr align 8 %10, i64 8, i1 false)
  %26 = getelementptr inbounds %class.cmValue, ptr %11, i32 0, i32 0
  %27 = load ptr, ptr %26, align 8
  %28 = invoke noundef zeroext i1 @_Z6cmIsOn7cmValue(ptr %27)
          to label %29 unwind label %34

29:                                               ; preds = %25
  store i1 %28, ptr %3, align 1
  store i32 1, ptr %12, align 4
  br label %40

30:                                               ; preds = %2
  %31 = landingpad { ptr, i32 }
          cleanup
  %32 = extractvalue { ptr, i32 } %31, 0
  store ptr %32, ptr %8, align 8
  %33 = extractvalue { ptr, i32 } %31, 1
  store i32 %33, ptr %9, align 4
  call void @_ZNSt7__cxx1112basic_stringIcSt11char_traitsIcESaIcEED1Ev(ptr noundef nonnull align 8 dereferenceable(32) %7) #3
  br label %42

34:                                               ; preds = %25, %15
  %35 = landingpad { ptr, i32 }
          cleanup
  %36 = extractvalue { ptr, i32 } %35, 0
  store ptr %36, ptr %8, align 8
  %37 = extractvalue { ptr, i32 } %35, 1
  store i32 %37, ptr %9, align 4
  call void @_ZNSt7__cxx1112basic_stringIcSt11char_traitsIcESaIcEED1Ev(ptr noundef nonnull align 8 dereferenceable(32) %6) #3
  br label %42

38:                                               ; preds = %22
  br label %39

39:                                               ; preds = %38, %19
  store i1 false, ptr %3, align 1
  store i32 1, ptr %12, align 4
  br label %40

40:                                               ; preds = %39, %29
  call void @_ZNSt7__cxx1112basic_stringIcSt11char_traitsIcESaIcEED1Ev(ptr noundef nonnull align 8 dereferenceable(32) %6) #3
  %41 = load i1, ptr %3, align 1
  ret i1 %41

42:                                               ; preds = %34, %30
  %43 = load ptr, ptr %8, align 8
  %44 = load i32, ptr %9, align 4
  %45 = insertvalue { ptr, i32 } poison, ptr %43, 0
  %46 = insertvalue { ptr, i32 } %45, i32 %44, 1
  resume { ptr, i32 } %46
}